; Function Attrs: null_pointer_is_valid sspstrong uwtable
define hidden noundef i32 @dissect_dcerpc_uint8s(ptr noundef %0, i32 noundef %1, ptr noundef readnone captures(none) %2, ptr noundef %3, ptr noundef readnone captures(none) %4, ptr noundef readnone captures(none) %5, i32 noundef %6, i32 noundef %7, ptr noundef writeonly captures(address_is_null) %8) local_unnamed_addr #0 {
  %10 = tail call ptr @tvb_get_ptr(ptr noundef %0, i32 noundef %1, i32 noundef %7)
  %11 = tail call ptr @proto_tree_add_item(ptr noundef %3, i32 noundef %6, ptr noundef %0, i32 noundef %1, i32 noundef %7, i32 noundef 0)
  %.not = icmp eq ptr %8, null
  br i1 %.not, label %13, label %12

12:                                               ; preds = %9
  store ptr %10, ptr %8, align 8
  br label %13

13:                                               ; preds = %12, %9
  %14 = add i32 %7, %1
  ret i32 %14
}